target datalayout = "e-m:e-p270:32:32-p271:32:32-p272:64:64-i64:64-i128:128-f80:128-n8:16:32:64-S128"
target triple = "x86_64-pc-linux-gnu"

%"class.icu_77::LocalePriorityList" = type { ptr, i32, i32, i8, ptr }
%"struct.icu_77::LocaleAndWeightArray" = type { %"class.icu_77::MaybeStackArray.0" }
%"class.icu_77::MaybeStackArray.0" = type { ptr, i32, i8, [20 x %"struct.icu_77::(anonymous namespace)::LocaleAndWeight"] }
%"struct.icu_77::(anonymous namespace)::LocaleAndWeight" = type { ptr, i32, i32 }

; Function Attrs: mustprogress nounwind uwtable
define internal noundef ptr @_ZNK6icu_7715MaybeStackArrayINS_12_GLOBAL__N_115LocaleAndWeightELi20EE8getAliasEv(ptr noundef nonnull align 8 dereferenceable(336) %0) #0 align 2 {
  %2 = alloca ptr, align 8
  store ptr %0, ptr %2, align 8, !tbaa !69
  %3 = load ptr, ptr %2, align 8
  %4 = getelementptr inbounds nuw %"class.icu_77::MaybeStackArray.0", ptr %3, i32 0, i32 0
  %5 = load ptr, ptr %4, align 8, !tbaa !71
  ret ptr %5
}

; Function Attrs: mustprogress nounwind uwtable
define linkonce_odr noundef i32 @_ZNK6icu_7718LocalePriorityList9getLengthEv(ptr noundef nonnull align 8 dereferenceable(32) %0) #0 comdat align 2 {
  %2 = alloca ptr, align 8
  store ptr %0, ptr %2, align 8, !tbaa !23
  %3 = load ptr, ptr %2, align 8
  %4 = getelementptr inbounds nuw %"class.icu_77::LocalePriorityList", ptr %3, i32 0, i32 1
  %5 = load i32, ptr %4, align 8, !tbaa !30
  %6 = getelementptr inbounds nuw %"class.icu_77::LocalePriorityList", ptr %3, i32 0, i32 2
  %7 = load i32, ptr %6, align 4, !tbaa !31
  %8 = sub nsw i32 %5, %7
  ret i32 %8
}

; Function Attrs: inlinehint mustprogress nounwind uwtable
define internal noundef signext i8 @_ZL9U_FAILURE10UErrorCode(i32 noundef %0) #2 {
  %2 = alloca i32, align 4
  store i32 %0, ptr %2, align 4, !tbaa !15
  %3 = load i32, ptr %2, align 4, !tbaa !15
  %4 = icmp sgt i32 %3, 0
  %5 = zext i1 %4 to i8
  ret i8 %5
}

; Function Attrs: mustprogress uwtable
define void @_ZN6icu_7718LocalePriorityList4sortER10UErrorCode(ptr noundef nonnull align 8 dereferenceable(32) %0, ptr noundef nonnull align 4 dereferenceable(4) %1) #1 align 2 {
  %3 = alloca ptr, align 8
  %4 = alloca ptr, align 8
  store ptr %0, ptr %3, align 8, !tbaa !23
  store ptr %1, ptr %4, align 8, !tbaa !22
  %5 = load ptr, ptr %3, align 8
  %6 = load ptr, ptr %4, align 8, !tbaa !22
  %7 = load i32, ptr %6, align 4, !tbaa !15
  %8 = call noundef signext i8 @_ZL9U_FAILURE10UErrorCode(i32 noundef %7)
  %9 = icmp ne i8 %8, 0
  br i1 %9, label %17, label %10

10:                                               ; preds = %2
  %11 = call noundef i32 @_ZNK6icu_7718LocalePriorityList9getLengthEv(ptr noundef nonnull align 8 dereferenceable(32) %5)
  %12 = icmp sle i32 %11, 1
  br i1 %12, label %17, label %13

13:                                               ; preds = %10
  %14 = getelementptr inbounds nuw %"class.icu_77::LocalePriorityList", ptr %5, i32 0, i32 3
  %15 = load i8, ptr %14, align 8, !tbaa !32, !range !64, !noundef !65
  %16 = trunc i8 %15 to i1
  br i1 %16, label %18, label %17

17:                                               ; preds = %13, %10, %2
  br label %26

18:                                               ; preds = %13
  %19 = getelementptr inbounds nuw %"class.icu_77::LocalePriorityList", ptr %5, i32 0, i32 0
  %20 = load ptr, ptr %19, align 8, !tbaa !25
  %21 = getelementptr inbounds nuw %"struct.icu_77::LocaleAndWeightArray", ptr %20, i32 0, i32 0
  %22 = call noundef ptr @_ZNK6icu_7715MaybeStackArrayINS_12_GLOBAL__N_115LocaleAndWeightELi20EE8getAliasEv(ptr noundef nonnull align 8 dereferenceable(336) %21)
  %23 = getelementptr inbounds nuw %"class.icu_77::LocalePriorityList", ptr %5, i32 0, i32 1
  %24 = load i32, ptr %23, align 8, !tbaa !30
  %25 = load ptr, ptr %4, align 8, !tbaa !22
  call void @uprv_sortArray_77(ptr noundef %22, i32 noundef %24, i32 noundef 16, ptr noundef @_ZN6icu_7712_GLOBAL__N_122compareLocaleAndWeightEPKvS2_S2_, ptr noundef null, i8 noundef signext 0, ptr noundef %25)
  br label %26

26:                                               ; preds = %18, %17
  ret void
}