; Function Attrs: mustprogress uwtable
define void @_ZN6icu_7718LocalePriorityList4sortER10UErrorCode(ptr noundef nonnull readonly align 8 captures(none) dereferenceable(32) %0, ptr noundef nonnull align 4 dereferenceable(4) %1) local_unnamed_addr #1 align 2 {
  %3 = load i32, ptr %1, align 4, !tbaa !13
  %4 = icmp slt i32 %3, 1
  br i1 %4, label %5, label %18

5:                                                ; preds = %2
  %6 = getelementptr inbounds nuw i8, ptr %0, i64 8
  %7 = load i32, ptr %6, align 8, !tbaa !36
  %8 = getelementptr inbounds nuw i8, ptr %0, i64 12
  %9 = load i32, ptr %8, align 4, !tbaa !37
  %10 = sub nsw i32 %7, %9
  %11 = icmp slt i32 %10, 2
  br i1 %11, label %18, label %12

12:                                               ; preds = %5
  %13 = getelementptr inbounds nuw i8, ptr %0, i64 16
  %14 = load i8, ptr %13, align 8, !tbaa !38, !range !39, !noundef !40
  %15 = trunc nuw i8 %14 to i1
  br i1 %15, label %16, label %18

16:                                               ; preds = %12
  %17 = load ptr, ptr %0, align 8, !tbaa !20
  %.val = load ptr, ptr %17, align 8, !tbaa !21
  tail call void @uprv_sortArray_77(ptr noundef %.val, i32 noundef %7, i32 noundef 16, ptr noundef nonnull @_ZN6icu_7712_GLOBAL__N_122compareLocaleAndWeightEPKvS2_S2_, ptr noundef null, i8 noundef signext 0, ptr noundef nonnull %1)
  br label %18

18:                                               ; preds = %2, %5, %12, %16
  ret void
}